target datalayout = "e-m:e-p270:32:32-p271:32:32-p272:64:64-i64:64-i128:128-f80:128-n8:16:32:64-S128"
target triple = "x86_64-unknown-linux-gnu"

%struct.ASN1_ITEM_st = type { i8, i64, ptr, i64, ptr, i64, ptr }
%struct.CRYPTO_STATIC_MUTEX = type { %union.pthread_rwlock_t }
%union.pthread_rwlock_t = type { %struct.__pthread_rwlock_arch_t }
%struct.__pthread_rwlock_arch_t = type { i32, i32, i32, i32, i32, i32, i32, i32, i8, [7 x i8], i64, i32 }
%struct.cbs_st = type { ptr, i64 }
%struct.X509_pubkey_st = type { ptr, ptr, ptr }

@X509_PUBKEY_it = hidden constant %struct.ASN1_ITEM_st { i8 1, i64 16, ptr @X509_PUBKEY_seq_tt, i64 2, ptr @X509_PUBKEY_aux, i64 24, ptr @.str }, align 8
@.str.1 = private unnamed_addr constant [126 x i8] c"generated/home/dtcxzyw/WorkSpace/Projects/compilers/llvm-opt-benchmark/bench/libquic/libquic/boringssl/crypto/x509/x_pubkey.c\00", align 1
@g_pubkey_lock = internal global %struct.CRYPTO_STATIC_MUTEX zeroinitializer, align 8

; Function Attrs: nounwind uwtable
define hidden i32 @i2d_X509_PUBKEY(ptr noundef %a, ptr noundef %out) #0 {
entry:
  %a.addr = alloca ptr, align 8
  %out.addr = alloca ptr, align 8
  store ptr %a, ptr %a.addr, align 8
  store ptr %out, ptr %out.addr, align 8
  %0 = load ptr, ptr %a.addr, align 8
  %1 = load ptr, ptr %out.addr, align 8
  %call = call i32 @ASN1_item_i2d(ptr noundef %0, ptr noundef %1, ptr noundef @X509_PUBKEY_it)
  ret i32 %call
}

; Function Attrs: nounwind uwtable
define hidden ptr @X509_PUBKEY_get(ptr noundef %key) #0 {
entry:
  %retval = alloca ptr, align 8
  %key.addr = alloca ptr, align 8
  %ret = alloca ptr, align 8
  %spki = alloca ptr, align 8
  %spki_len = alloca i32, align 4
  %cbs = alloca %struct.cbs_st, align 8
  store ptr %key, ptr %key.addr, align 8
  store ptr null, ptr %ret, align 8
  store ptr null, ptr %spki, align 8
  %0 = load ptr, ptr %key.addr, align 8
  %cmp = icmp eq ptr %0, null
  br i1 %cmp, label %if.then, label %if.end

if.then:                                          ; preds = %entry
  br label %error

if.end:                                           ; preds = %entry
  call void @CRYPTO_STATIC_MUTEX_lock_read(ptr noundef @g_pubkey_lock)
  %1 = load ptr, ptr %key.addr, align 8
  %pkey = getelementptr inbounds %struct.X509_pubkey_st, ptr %1, i32 0, i32 2
  %2 = load ptr, ptr %pkey, align 8
  %cmp1 = icmp ne ptr %2, null
  br i1 %cmp1, label %if.then2, label %if.end4

if.then2:                                         ; preds = %if.end
  call void @CRYPTO_STATIC_MUTEX_unlock(ptr noundef @g_pubkey_lock)
  %3 = load ptr, ptr %key.addr, align 8
  %pkey3 = getelementptr inbounds %struct.X509_pubkey_st, ptr %3, i32 0, i32 2
  %4 = load ptr, ptr %pkey3, align 8
  %call = call ptr @EVP_PKEY_up_ref(ptr noundef %4)
  store ptr %call, ptr %retval, align 8
  br label %return

if.end4:                                          ; preds = %if.end
  call void @CRYPTO_STATIC_MUTEX_unlock(ptr noundef @g_pubkey_lock)
  %5 = load ptr, ptr %key.addr, align 8
  %call5 = call i32 @i2d_X509_PUBKEY(ptr noundef %5, ptr noundef %spki)
  store i32 %call5, ptr %spki_len, align 4
  %6 = load i32, ptr %spki_len, align 4
  %cmp6 = icmp slt i32 %6, 0
  br i1 %cmp6, label %if.then7, label %if.end8

if.then7:                                         ; preds = %if.end4
  br label %error

if.end8:                                          ; preds = %if.end4
  %7 = load ptr, ptr %spki, align 8
  %8 = load i32, ptr %spki_len, align 4
  %conv = sext i32 %8 to i64
  call void @CBS_init(ptr noundef %cbs, ptr noundef %7, i64 noundef %conv)
  %call9 = call ptr @EVP_parse_public_key(ptr noundef %cbs)
  store ptr %call9, ptr %ret, align 8
  %9 = load ptr, ptr %ret, align 8
  %cmp10 = icmp eq ptr %9, null
  br i1 %cmp10, label %if.then15, label %lor.lhs.false

lor.lhs.false:                                    ; preds = %if.end8
  %call12 = call i64 @CBS_len(ptr noundef %cbs)
  %cmp13 = icmp ne i64 %call12, 0
  br i1 %cmp13, label %if.then15, label %if.end16

if.then15:                                        ; preds = %lor.lhs.false, %if.end8
  call void @ERR_put_error(i32 noundef 11, i32 noundef 0, i32 noundef 125, ptr noundef @.str.1, i32 noundef 157)
  br label %error

if.end16:                                         ; preds = %lor.lhs.false
  call void @CRYPTO_STATIC_MUTEX_lock_write(ptr noundef @g_pubkey_lock)
  %10 = load ptr, ptr %key.addr, align 8
  %pkey17 = getelementptr inbounds %struct.X509_pubkey_st, ptr %10, i32 0, i32 2
  %11 = load ptr, ptr %pkey17, align 8
  %tobool = icmp ne ptr %11, null
  br i1 %tobool, label %if.then18, label %if.else

if.then18:                                        ; preds = %if.end16
  call void @CRYPTO_STATIC_MUTEX_unlock(ptr noundef @g_pubkey_lock)
  %12 = load ptr, ptr %ret, align 8
  call void @EVP_PKEY_free(ptr noundef %12)
  %13 = load ptr, ptr %key.addr, align 8
  %pkey19 = getelementptr inbounds %struct.X509_pubkey_st, ptr %13, i32 0, i32 2
  %14 = load ptr, ptr %pkey19, align 8
  store ptr %14, ptr %ret, align 8
  br label %if.end21

if.else:                                          ; preds = %if.end16
  %15 = load ptr, ptr %ret, align 8
  %16 = load ptr, ptr %key.addr, align 8
  %pkey20 = getelementptr inbounds %struct.X509_pubkey_st, ptr %16, i32 0, i32 2
  store ptr %15, ptr %pkey20, align 8
  call void @CRYPTO_STATIC_MUTEX_unlock(ptr noundef @g_pubkey_lock)
  br label %if.end21

if.end21:                                         ; preds = %if.else, %if.then18
  %17 = load ptr, ptr %spki, align 8
  call void @free(ptr noundef %17) #3
  %18 = load ptr, ptr %ret, align 8
  %call22 = call ptr @EVP_PKEY_up_ref(ptr noundef %18)
  store ptr %call22, ptr %retval, align 8
  br label %return

error:                                            ; preds = %if.then15, %if.then7, %if.then
  %19 = load ptr, ptr %spki, align 8
  call void @free(ptr noundef %19) #3
  %20 = load ptr, ptr %ret, align 8
  call void @EVP_PKEY_free(ptr noundef %20)
  store ptr null, ptr %retval, align 8
  br label %return

return:                                           ; preds = %error, %if.end21, %if.then2
  %21 = load ptr, ptr %retval, align 8
  ret ptr %21
}