; Function Attrs: nounwind uwtable
define hidden ptr @X509_PUBKEY_get(ptr noundef %key) local_unnamed_addr #0 {
entry:
  %spki = alloca ptr, align 8
  %cbs = alloca %struct.cbs_st, align 8
  store ptr null, ptr %spki, align 8
  %cmp = icmp eq ptr %key, null
  br i1 %cmp, label %error, label %if.end

if.end:                                           ; preds = %entry
  tail call void @CRYPTO_STATIC_MUTEX_lock_read(ptr noundef nonnull @g_pubkey_lock) #5
  %pkey = getelementptr inbounds nuw i8, ptr %key, i64 16
  %0 = load ptr, ptr %pkey, align 8
  %cmp1.not = icmp eq ptr %0, null
  tail call void @CRYPTO_STATIC_MUTEX_unlock(ptr noundef nonnull @g_pubkey_lock) #5
  br i1 %cmp1.not, label %if.end4, label %if.then2

if.then2:                                         ; preds = %if.end
  %1 = load ptr, ptr %pkey, align 8
  %call = tail call ptr @EVP_PKEY_up_ref(ptr noundef %1) #5
  br label %return

if.end4:                                          ; preds = %if.end
  %call.i = call i32 @ASN1_item_i2d(ptr noundef nonnull %key, ptr noundef nonnull %spki, ptr noundef nonnull @X509_PUBKEY_it) #5
  %cmp6 = icmp slt i32 %call.i, 0
  %.pre12 = load ptr, ptr %spki, align 8
  br i1 %cmp6, label %error, label %if.end8

if.end8:                                          ; preds = %if.end4
  %conv = zext nneg i32 %call.i to i64
  call void @CBS_init(ptr noundef nonnull %cbs, ptr noundef %.pre12, i64 noundef %conv) #5
  %call9 = call ptr @EVP_parse_public_key(ptr noundef nonnull %cbs) #5
  %cmp10 = icmp eq ptr %call9, null
  br i1 %cmp10, label %if.then15, label %lor.lhs.false

lor.lhs.false:                                    ; preds = %if.end8
  %call12 = call i64 @CBS_len(ptr noundef nonnull %cbs) #5
  %cmp13.not = icmp eq i64 %call12, 0
  br i1 %cmp13.not, label %if.end16, label %if.then15

if.then15:                                        ; preds = %lor.lhs.false, %if.end8
  call void @ERR_put_error(i32 noundef 11, i32 noundef 0, i32 noundef 125, ptr noundef nonnull @.str.1, i32 noundef 157) #5
  %.pre = load ptr, ptr %spki, align 8
  br label %error

if.end16:                                         ; preds = %lor.lhs.false
  call void @CRYPTO_STATIC_MUTEX_lock_write(ptr noundef nonnull @g_pubkey_lock) #5
  %2 = load ptr, ptr %pkey, align 8
  %tobool.not = icmp eq ptr %2, null
  br i1 %tobool.not, label %if.else, label %if.then18

if.then18:                                        ; preds = %if.end16
  call void @CRYPTO_STATIC_MUTEX_unlock(ptr noundef nonnull @g_pubkey_lock) #5
  call void @EVP_PKEY_free(ptr noundef nonnull %call9) #5
  %3 = load ptr, ptr %pkey, align 8
  br label %if.end21

if.else:                                          ; preds = %if.end16
  store ptr %call9, ptr %pkey, align 8
  call void @CRYPTO_STATIC_MUTEX_unlock(ptr noundef nonnull @g_pubkey_lock) #5
  br label %if.end21

if.end21:                                         ; preds = %if.else, %if.then18
  %ret.1 = phi ptr [ %3, %if.then18 ], [ %call9, %if.else ]
  %4 = load ptr, ptr %spki, align 8
  call void @free(ptr noundef %4) #5
  %call22 = call ptr @EVP_PKEY_up_ref(ptr noundef %ret.1) #5
  br label %return

error:                                            ; preds = %if.end4, %entry, %if.then15
  %5 = phi ptr [ null, %entry ], [ %.pre12, %if.end4 ], [ %.pre, %if.then15 ]
  %ret.0 = phi ptr [ null, %entry ], [ null, %if.end4 ], [ %call9, %if.then15 ]
  call void @free(ptr noundef %5) #5
  call void @EVP_PKEY_free(ptr noundef %ret.0) #5
  br label %return

return:                                           ; preds = %error, %if.end21, %if.then2
  %retval.0 = phi ptr [ null, %error ], [ %call, %if.then2 ], [ %call22, %if.end21 ]
  ret ptr %retval.0
}